target datalayout = "e-m:e-p270:32:32-p271:32:32-p272:64:64-i64:64-i128:128-f80:128-n8:16:32:64-S128"
target triple = "x86_64-pc-linux-gnu"

%struct.event_base = type { ptr, ptr, %struct.event_changelist, ptr, %struct.evsig_info, i32, i32, i32, i32, i32, i32, i32, i32, i32, i32, i32, i32, ptr, i32, %struct.evcallback_list, ptr, i32, i32, %struct.event_signal_map, %struct.event_signal_map, %struct.min_heap, %struct.timeval, %struct.evutil_monotonic_timer, %struct.timeval, i64, i64, ptr, ptr, i32, ptr, i32, %struct.timeval, i32, i32, i32, [2 x i32], %struct.event, ptr, %struct.evutil_weakrand_state, %struct.once_event_list, [2 x %struct.evwatch_list] }
%struct.event_changelist = type { ptr, i32, i32 }
%struct.evsig_info = type { %struct.event, [2 x i32], i32, i32, [65 x ptr], ptr, i32 }
%struct.evcallback_list = type { ptr, ptr }
%struct.event_signal_map = type { ptr, i32 }
%struct.min_heap = type { ptr, i64, i64 }
%struct.evutil_monotonic_timer = type { i32, %struct.timeval, %struct.timeval }
%struct.timeval = type { i64, i64 }
%struct.event = type { %struct.event_callback, %union.anon.0, i32, i16, i16, ptr, %union.anon.2, %struct.timeval }
%struct.event_callback = type { %struct.anon, i16, i8, i8, %union.anon, ptr }
%struct.anon = type { ptr, ptr }
%union.anon = type { ptr }
%union.anon.0 = type { %struct.anon.1 }
%struct.anon.1 = type { ptr, ptr }
%union.anon.2 = type { %struct.anon.3 }
%struct.anon.3 = type { %struct.anon.4, %struct.timeval }
%struct.anon.4 = type { ptr, ptr }
%struct.evutil_weakrand_state = type { i32 }
%struct.once_event_list = type { ptr }
%struct.evwatch_list = type { ptr, ptr }
%struct.selectop = type { i32, i32, i32, ptr, ptr, ptr, ptr }
%struct.fd_set = type { [16 x i64] }

@.str.1 = private unnamed_addr constant [7 x i8] c"malloc\00", align 1

; Function Attrs: nounwind uwtable
define internal i32 @select_resize(ptr noundef %0, i32 noundef %1) #0 {
  %3 = alloca i32, align 4
  %4 = alloca ptr, align 8
  %5 = alloca i32, align 4
  %6 = alloca ptr, align 8
  %7 = alloca ptr, align 8
  %8 = alloca i32, align 4
  store ptr %0, ptr %4, align 8
  store i32 %1, ptr %5, align 4
  call void @llvm.lifetime.start.p0(i64 8, ptr %6) #6
  store ptr null, ptr %6, align 8
  call void @llvm.lifetime.start.p0(i64 8, ptr %7) #6
  store ptr null, ptr %7, align 8
  %9 = load ptr, ptr %4, align 8
  %10 = getelementptr inbounds nuw %struct.selectop, ptr %9, i32 0, i32 3
  %11 = load ptr, ptr %10, align 8
  %12 = icmp ne ptr %11, null
  br i1 %12, label %13, label %17

13:                                               ; preds = %2
  br label %14

14:                                               ; preds = %13
  br label %15

15:                                               ; preds = %14
  br label %16

16:                                               ; preds = %15
  br label %17

17:                                               ; preds = %16, %2
  %18 = load ptr, ptr %4, align 8
  %19 = getelementptr inbounds nuw %struct.selectop, ptr %18, i32 0, i32 3
  %20 = load ptr, ptr %19, align 8
  %21 = load i32, ptr %5, align 4
  %22 = sext i32 %21 to i64
  %23 = call ptr @event_mm_realloc_(ptr noundef %20, i64 noundef %22)
  store ptr %23, ptr %6, align 8
  %24 = icmp eq ptr %23, null
  br i1 %24, label %25, label %26

25:                                               ; preds = %17
  br label %78

26:                                               ; preds = %17
  %27 = load ptr, ptr %6, align 8
  %28 = load ptr, ptr %4, align 8
  %29 = getelementptr inbounds nuw %struct.selectop, ptr %28, i32 0, i32 3
  store ptr %27, ptr %29, align 8
  %30 = load ptr, ptr %4, align 8
  %31 = getelementptr inbounds nuw %struct.selectop, ptr %30, i32 0, i32 4
  %32 = load ptr, ptr %31, align 8
  %33 = load i32, ptr %5, align 4
  %34 = sext i32 %33 to i64
  %35 = call ptr @event_mm_realloc_(ptr noundef %32, i64 noundef %34)
  store ptr %35, ptr %7, align 8
  %36 = icmp eq ptr %35, null
  br i1 %36, label %37, label %38

37:                                               ; preds = %26
  br label %78

38:                                               ; preds = %26
  %39 = load ptr, ptr %7, align 8
  %40 = load ptr, ptr %4, align 8
  %41 = getelementptr inbounds nuw %struct.selectop, ptr %40, i32 0, i32 4
  store ptr %39, ptr %41, align 8
  %42 = load ptr, ptr %4, align 8
  %43 = getelementptr inbounds nuw %struct.selectop, ptr %42, i32 0, i32 2
  store i32 1, ptr %43, align 8
  %44 = load ptr, ptr %4, align 8
  %45 = getelementptr inbounds nuw %struct.selectop, ptr %44, i32 0, i32 3
  %46 = load ptr, ptr %45, align 8
  %47 = load ptr, ptr %4, align 8
  %48 = getelementptr inbounds nuw %struct.selectop, ptr %47, i32 0, i32 1
  %49 = load i32, ptr %48, align 4
  %50 = sext i32 %49 to i64
  %51 = getelementptr inbounds i8, ptr %46, i64 %50
  %52 = load i32, ptr %5, align 4
  %53 = load ptr, ptr %4, align 8
  %54 = getelementptr inbounds nuw %struct.selectop, ptr %53, i32 0, i32 1
  %55 = load i32, ptr %54, align 4
  %56 = sub nsw i32 %52, %55
  %57 = sext i32 %56 to i64
  call void @llvm.memset.p0.i64(ptr align 1 %51, i8 0, i64 %57, i1 false)
  %58 = load ptr, ptr %4, align 8
  %59 = getelementptr inbounds nuw %struct.selectop, ptr %58, i32 0, i32 4
  %60 = load ptr, ptr %59, align 8
  %61 = load ptr, ptr %4, align 8
  %62 = getelementptr inbounds nuw %struct.selectop, ptr %61, i32 0, i32 1
  %63 = load i32, ptr %62, align 4
  %64 = sext i32 %63 to i64
  %65 = getelementptr inbounds i8, ptr %60, i64 %64
  %66 = load i32, ptr %5, align 4
  %67 = load ptr, ptr %4, align 8
  %68 = getelementptr inbounds nuw %struct.selectop, ptr %67, i32 0, i32 1
  %69 = load i32, ptr %68, align 4
  %70 = sub nsw i32 %66, %69
  %71 = sext i32 %70 to i64
  call void @llvm.memset.p0.i64(ptr align 1 %65, i8 0, i64 %71, i1 false)
  %72 = load i32, ptr %5, align 4
  %73 = load ptr, ptr %4, align 8
  %74 = getelementptr inbounds nuw %struct.selectop, ptr %73, i32 0, i32 1
  store i32 %72, ptr %74, align 4
  br label %75

75:                                               ; preds = %38
  br label %76

76:                                               ; preds = %75
  br label %77

77:                                               ; preds = %76
  store i32 0, ptr %3, align 4
  store i32 1, ptr %8, align 4
  br label %79

78:                                               ; preds = %37, %25
  call void (ptr, ...) @event_warn(ptr noundef @.str.1)
  store i32 -1, ptr %3, align 4
  store i32 1, ptr %8, align 4
  br label %79

79:                                               ; preds = %78, %77
  call void @llvm.lifetime.end.p0(i64 8, ptr %7) #6
  call void @llvm.lifetime.end.p0(i64 8, ptr %6) #6
  %80 = load i32, ptr %3, align 4
  ret i32 %80
}

; Function Attrs: nounwind uwtable
define internal i32 @select_add(ptr noundef %0, i32 noundef %1, i16 noundef signext %2, i16 noundef signext %3, ptr noundef %4) #0 {
  %6 = alloca i32, align 4
  %7 = alloca ptr, align 8
  %8 = alloca i32, align 4
  %9 = alloca i16, align 2
  %10 = alloca i16, align 2
  %11 = alloca ptr, align 8
  %12 = alloca ptr, align 8
  %13 = alloca i32, align 4
  %14 = alloca i32, align 4
  store ptr %0, ptr %7, align 8
  store i32 %1, ptr %8, align 4
  store i16 %2, ptr %9, align 2
  store i16 %3, ptr %10, align 2
  store ptr %4, ptr %11, align 8
  call void @llvm.lifetime.start.p0(i64 8, ptr %12) #6
  %15 = load ptr, ptr %7, align 8
  %16 = getelementptr inbounds nuw %struct.event_base, ptr %15, i32 0, i32 1
  %17 = load ptr, ptr %16, align 8
  store ptr %17, ptr %12, align 8
  br label %18

18:                                               ; preds = %5
  br label %19

19:                                               ; preds = %18
  br label %20

20:                                               ; preds = %19
  br label %21

21:                                               ; preds = %20
  br label %22

22:                                               ; preds = %21
  br label %23

23:                                               ; preds = %22
  %24 = load ptr, ptr %12, align 8
  %25 = getelementptr inbounds nuw %struct.selectop, ptr %24, i32 0, i32 0
  %26 = load i32, ptr %25, align 8
  %27 = load i32, ptr %8, align 4
  %28 = icmp slt i32 %26, %27
  br i1 %28, label %29, label %73

29:                                               ; preds = %23
  call void @llvm.lifetime.start.p0(i64 4, ptr %13) #6
  %30 = load ptr, ptr %12, align 8
  %31 = getelementptr inbounds nuw %struct.selectop, ptr %30, i32 0, i32 1
  %32 = load i32, ptr %31, align 4
  store i32 %32, ptr %13, align 4
  %33 = load i32, ptr %13, align 4
  %34 = icmp slt i32 %33, 8
  br i1 %34, label %35, label %36

35:                                               ; preds = %29
  store i32 8, ptr %13, align 4
  br label %36

36:                                               ; preds = %35, %29
  br label %37

37:                                               ; preds = %47, %36
  %38 = load i32, ptr %13, align 4
  %39 = load i32, ptr %8, align 4
  %40 = add nsw i32 %39, 1
  %41 = add nsw i32 %40, 63
  %42 = sdiv i32 %41, 64
  %43 = sext i32 %42 to i64
  %44 = mul i64 %43, 8
  %45 = trunc i64 %44 to i32
  %46 = icmp slt i32 %38, %45
  br i1 %46, label %47, label %50

47:                                               ; preds = %37
  %48 = load i32, ptr %13, align 4
  %49 = mul nsw i32 %48, 2
  store i32 %49, ptr %13, align 4
  br label %37, !llvm.loop !3

50:                                               ; preds = %37
  %51 = load i32, ptr %13, align 4
  %52 = load ptr, ptr %12, align 8
  %53 = getelementptr inbounds nuw %struct.selectop, ptr %52, i32 0, i32 1
  %54 = load i32, ptr %53, align 4
  %55 = icmp ne i32 %51, %54
  br i1 %55, label %56, label %66

56:                                               ; preds = %50
  %57 = load ptr, ptr %12, align 8
  %58 = load i32, ptr %13, align 4
  %59 = call i32 @select_resize(ptr noundef %57, i32 noundef %58)
  %60 = icmp ne i32 %59, 0
  br i1 %60, label %61, label %65

61:                                               ; preds = %56
  br label %62

62:                                               ; preds = %61
  br label %63

63:                                               ; preds = %62
  br label %64

64:                                               ; preds = %63
  store i32 -1, ptr %6, align 4
  store i32 1, ptr %14, align 4
  br label %70

65:                                               ; preds = %56
  br label %66

66:                                               ; preds = %65, %50
  %67 = load i32, ptr %8, align 4
  %68 = load ptr, ptr %12, align 8
  %69 = getelementptr inbounds nuw %struct.selectop, ptr %68, i32 0, i32 0
  store i32 %67, ptr %69, align 8
  store i32 0, ptr %14, align 4
  br label %70

70:                                               ; preds = %66, %64
  call void @llvm.lifetime.end.p0(i64 4, ptr %13) #6
  %71 = load i32, ptr %14, align 4
  switch i32 %71, label %117 [
    i32 0, label %72
  ]

72:                                               ; preds = %70
  br label %73

73:                                               ; preds = %72, %23
  %74 = load i16, ptr %10, align 2
  %75 = sext i16 %74 to i32
  %76 = and i32 %75, 2
  %77 = icmp ne i32 %76, 0
  br i1 %77, label %78, label %93

78:                                               ; preds = %73
  %79 = load i32, ptr %8, align 4
  %80 = srem i32 %79, 64
  %81 = zext i32 %80 to i64
  %82 = shl i64 1, %81
  %83 = load ptr, ptr %12, align 8
  %84 = getelementptr inbounds nuw %struct.selectop, ptr %83, i32 0, i32 3
  %85 = load ptr, ptr %84, align 8
  %86 = getelementptr inbounds nuw %struct.fd_set, ptr %85, i32 0, i32 0
  %87 = load i32, ptr %8, align 4
  %88 = sdiv i32 %87, 64
  %89 = sext i32 %88 to i64
  %90 = getelementptr inbounds [16 x i64], ptr %86, i64 0, i64 %89
  %91 = load i64, ptr %90, align 8
  %92 = or i64 %91, %82
  store i64 %92, ptr %90, align 8
  br label %93

93:                                               ; preds = %78, %73
  %94 = load i16, ptr %10, align 2
  %95 = sext i16 %94 to i32
  %96 = and i32 %95, 4
  %97 = icmp ne i32 %96, 0
  br i1 %97, label %98, label %113

98:                                               ; preds = %93
  %99 = load i32, ptr %8, align 4
  %100 = srem i32 %99, 64
  %101 = zext i32 %100 to i64
  %102 = shl i64 1, %101
  %103 = load ptr, ptr %12, align 8
  %104 = getelementptr inbounds nuw %struct.selectop, ptr %103, i32 0, i32 4
  %105 = load ptr, ptr %104, align 8
  %106 = getelementptr inbounds nuw %struct.fd_set, ptr %105, i32 0, i32 0
  %107 = load i32, ptr %8, align 4
  %108 = sdiv i32 %107, 64
  %109 = sext i32 %108 to i64
  %110 = getelementptr inbounds [16 x i64], ptr %106, i64 0, i64 %109
  %111 = load i64, ptr %110, align 8
  %112 = or i64 %111, %102
  store i64 %112, ptr %110, align 8
  br label %113

113:                                              ; preds = %98, %93
  br label %114

114:                                              ; preds = %113
  br label %115

115:                                              ; preds = %114
  br label %116

116:                                              ; preds = %115
  store i32 0, ptr %6, align 4
  store i32 1, ptr %14, align 4
  br label %117

117:                                              ; preds = %116, %70
  call void @llvm.lifetime.end.p0(i64 8, ptr %12) #6
  %118 = load i32, ptr %6, align 4
  ret i32 %118
}