; Function Attrs: nounwind uwtable
define internal range(i32 -1, 1) i32 @select_add(ptr noundef readonly captures(none) %0, i32 noundef %1, i16 signext %2, i16 noundef signext %3, ptr readnone captures(none) %4) #0 {
  %6 = getelementptr inbounds nuw i8, ptr %0, i64 8
  %7 = load ptr, ptr %6, align 8
  %8 = load i32, ptr %7, align 8
  %9 = icmp slt i32 %8, %1
  br i1 %9, label %10, label %44

10:                                               ; preds = %5
  %11 = getelementptr inbounds nuw i8, ptr %7, i64 4
  %12 = load i32, ptr %11, align 4
  %spec.store.select = tail call i32 @llvm.smax.i32(i32 %12, i32 8)
  %13 = add nsw i32 %1, 64
  %14 = sdiv i32 %13, 64
  %15 = shl nsw i32 %14, 3
  br label %16

16:                                               ; preds = %16, %10
  %.023 = phi i32 [ %spec.store.select, %10 ], [ %18, %16 ]
  %17 = icmp slt i32 %.023, %15
  %18 = shl nuw nsw i32 %.023, 1
  br i1 %17, label %16, label %19, !llvm.loop !3

19:                                               ; preds = %16
  %.not = icmp eq i32 %.023, %12
  br i1 %.not, label %.critedge, label %20

20:                                               ; preds = %19
  %21 = getelementptr inbounds nuw i8, ptr %7, i64 16
  %22 = load ptr, ptr %21, align 8
  %23 = zext nneg i32 %.023 to i64
  %24 = tail call ptr @event_mm_realloc_(ptr noundef %22, i64 noundef %23) #7
  %25 = icmp eq ptr %24, null
  br i1 %25, label %select_resize.exit, label %26

26:                                               ; preds = %20
  store ptr %24, ptr %21, align 8
  %27 = getelementptr inbounds nuw i8, ptr %7, i64 24
  %28 = load ptr, ptr %27, align 8
  %29 = tail call ptr @event_mm_realloc_(ptr noundef %28, i64 noundef %23) #7
  %30 = icmp eq ptr %29, null
  br i1 %30, label %select_resize.exit, label %select_resize.exit.thread

select_resize.exit.thread:                        ; preds = %26
  store ptr %29, ptr %27, align 8
  %31 = getelementptr inbounds nuw i8, ptr %7, i64 8
  store i32 1, ptr %31, align 8
  %32 = load ptr, ptr %21, align 8
  %33 = load i32, ptr %11, align 4
  %34 = sext i32 %33 to i64
  %35 = getelementptr inbounds i8, ptr %32, i64 %34
  %36 = sub nsw i32 %.023, %33
  %37 = sext i32 %36 to i64
  tail call void @llvm.memset.p0.i64(ptr align 1 %35, i8 0, i64 %37, i1 false)
  %38 = load ptr, ptr %27, align 8
  %39 = load i32, ptr %11, align 4
  %40 = sext i32 %39 to i64
  %41 = getelementptr inbounds i8, ptr %38, i64 %40
  %42 = sub nsw i32 %.023, %39
  %43 = sext i32 %42 to i64
  tail call void @llvm.memset.p0.i64(ptr align 1 %41, i8 0, i64 %43, i1 false)
  store i32 %.023, ptr %11, align 4
  br label %.critedge

select_resize.exit:                               ; preds = %20, %26
  tail call void (ptr, ...) @event_warn(ptr noundef nonnull @.str.1) #7
  br label %70

.critedge:                                        ; preds = %select_resize.exit.thread, %19
  store i32 %1, ptr %7, align 8
  br label %44

44:                                               ; preds = %.critedge, %5
  %45 = and i16 %3, 2
  %.not27 = icmp eq i16 %45, 0
  br i1 %.not27, label %57, label %46

46:                                               ; preds = %44
  %47 = srem i32 %1, 64
  %48 = zext nneg i32 %47 to i64
  %49 = shl nuw i64 1, %48
  %50 = getelementptr inbounds nuw i8, ptr %7, i64 16
  %51 = load ptr, ptr %50, align 8
  %52 = sdiv i32 %1, 64
  %53 = sext i32 %52 to i64
  %54 = getelementptr inbounds [16 x i64], ptr %51, i64 0, i64 %53
  %55 = load i64, ptr %54, align 8
  %56 = or i64 %55, %49
  store i64 %56, ptr %54, align 8
  br label %57

57:                                               ; preds = %46, %44
  %58 = and i16 %3, 4
  %.not28 = icmp eq i16 %58, 0
  br i1 %.not28, label %70, label %59

59:                                               ; preds = %57
  %60 = srem i32 %1, 64
  %61 = zext nneg i32 %60 to i64
  %62 = shl nuw i64 1, %61
  %63 = getelementptr inbounds nuw i8, ptr %7, i64 24
  %64 = load ptr, ptr %63, align 8
  %65 = sdiv i32 %1, 64
  %66 = sext i32 %65 to i64
  %67 = getelementptr inbounds [16 x i64], ptr %64, i64 0, i64 %66
  %68 = load i64, ptr %67, align 8
  %69 = or i64 %68, %62
  store i64 %69, ptr %67, align 8
  br label %70

70:                                               ; preds = %select_resize.exit, %59, %57
  %.1 = phi i32 [ -1, %select_resize.exit ], [ 0, %57 ], [ 0, %59 ]
  ret i32 %.1
}